target datalayout = "e-m:e-p270:32:32-p271:32:32-p272:64:64-i64:64-i128:128-f80:128-n8:16:32:64-S128"
target triple = "x86_64-pc-linux-gnu"

%struct.ForEachState = type { ptr, i32 }
%struct.List = type { i32, i32, i32, ptr, [0 x %union.ListCell] }
%union.ListCell = type { ptr }

@.str.1 = private unnamed_addr constant [11 x i8] c"miscinit.c\00", align 1
@.str.86 = private unnamed_addr constant [38 x i8] c"invalid list syntax in parameter \22%s\22\00", align 1
@__func__.load_libraries = private unnamed_addr constant [15 x i8] c"load_libraries\00", align 1
@.str.87 = private unnamed_addr constant [19 x i8] c"$libdir/plugins/%s\00", align 1
@.str.88 = private unnamed_addr constant [20 x i8] c"loaded library \22%s\22\00", align 1

; Function Attrs: nounwind uwtable
define internal void @load_libraries(ptr noundef %0, ptr noundef %1, i1 noundef zeroext %2) #0 {
  %4 = alloca ptr, align 8
  %5 = alloca ptr, align 8
  %6 = alloca i8, align 1
  %7 = alloca ptr, align 8
  %8 = alloca ptr, align 8
  %9 = alloca ptr, align 8
  %10 = alloca i32, align 4
  %11 = alloca %struct.ForEachState, align 8
  %12 = alloca ptr, align 8
  %13 = alloca ptr, align 8
  store ptr %0, ptr %4, align 8
  store ptr %1, ptr %5, align 8
  %14 = zext i1 %2 to i8
  store i8 %14, ptr %6, align 1
  call void @llvm.lifetime.start.p0(i64 8, ptr %7) #12
  call void @llvm.lifetime.start.p0(i64 8, ptr %8) #12
  call void @llvm.lifetime.start.p0(i64 8, ptr %9) #12
  %15 = load ptr, ptr %4, align 8
  %16 = icmp eq ptr %15, null
  br i1 %16, label %23, label %17

17:                                               ; preds = %3
  %18 = load ptr, ptr %4, align 8
  %19 = getelementptr inbounds i8, ptr %18, i64 0
  %20 = load i8, ptr %19, align 1
  %21 = sext i8 %20 to i32
  %22 = icmp eq i32 %21, 0
  br i1 %22, label %23, label %24

23:                                               ; preds = %17, %3
  store i32 1, ptr %10, align 4
  br label %115

24:                                               ; preds = %17
  %25 = load ptr, ptr %4, align 8
  %26 = call ptr @pstrdup(ptr noundef %25)
  store ptr %26, ptr %7, align 8
  %27 = load ptr, ptr %7, align 8
  %28 = call zeroext i1 @SplitDirectoriesString(ptr noundef %27, i8 noundef signext 44, ptr noundef %8)
  br i1 %28, label %44, label %29

29:                                               ; preds = %24
  %30 = load ptr, ptr %8, align 8
  call void @list_free_deep(ptr noundef %30)
  %31 = load ptr, ptr %7, align 8
  call void @pfree(ptr noundef %31)
  br label %32

32:                                               ; preds = %29
  br i1 false, label %33, label %35

33:                                               ; preds = %32
  %34 = call zeroext i1 @errstart_cold(i32 noundef 15, ptr noundef null) #13
  br i1 %34, label %37, label %41

35:                                               ; preds = %32
  %36 = call zeroext i1 @errstart(i32 noundef 15, ptr noundef null)
  br i1 %36, label %37, label %41

37:                                               ; preds = %35, %33
  %38 = call i32 @errcode(i32 noundef 16801924)
  %39 = load ptr, ptr %5, align 8
  %40 = call i32 (ptr, ...) @errmsg(ptr noundef @.str.86, ptr noundef %39)
  call void @errfinish(ptr noundef @.str.1, i32 noundef 1868, ptr noundef @__func__.load_libraries)
  br label %41

41:                                               ; preds = %37, %35, %33
  br label %42

42:                                               ; preds = %41
  br label %43

43:                                               ; preds = %42
  store i32 1, ptr %10, align 4
  br label %115

44:                                               ; preds = %24
  call void @llvm.lifetime.start.p0(i64 16, ptr %11) #12
  %45 = getelementptr inbounds nuw %struct.ForEachState, ptr %11, i32 0, i32 0
  %46 = load ptr, ptr %8, align 8
  store ptr %46, ptr %45, align 8
  %47 = getelementptr inbounds nuw %struct.ForEachState, ptr %11, i32 0, i32 1
  store i32 0, ptr %47, align 8
  %48 = getelementptr i8, ptr %11, i64 12
  call void @llvm.memset.p0.i64(ptr align 4 %48, i8 0, i64 4, i1 false)
  br label %49

49:                                               ; preds = %108, %44
  %50 = getelementptr inbounds nuw %struct.ForEachState, ptr %11, i32 0, i32 0
  %51 = load ptr, ptr %50, align 8
  %52 = icmp ne ptr %51, null
  br i1 %52, label %53, label %70

53:                                               ; preds = %49
  %54 = getelementptr inbounds nuw %struct.ForEachState, ptr %11, i32 0, i32 1
  %55 = load i32, ptr %54, align 8
  %56 = getelementptr inbounds nuw %struct.ForEachState, ptr %11, i32 0, i32 0
  %57 = load ptr, ptr %56, align 8
  %58 = getelementptr inbounds nuw %struct.List, ptr %57, i32 0, i32 1
  %59 = load i32, ptr %58, align 4
  %60 = icmp slt i32 %55, %59
  br i1 %60, label %61, label %70

61:                                               ; preds = %53
  %62 = getelementptr inbounds nuw %struct.ForEachState, ptr %11, i32 0, i32 0
  %63 = load ptr, ptr %62, align 8
  %64 = getelementptr inbounds nuw %struct.List, ptr %63, i32 0, i32 3
  %65 = load ptr, ptr %64, align 8
  %66 = getelementptr inbounds nuw %struct.ForEachState, ptr %11, i32 0, i32 1
  %67 = load i32, ptr %66, align 8
  %68 = sext i32 %67 to i64
  %69 = getelementptr inbounds %union.ListCell, ptr %65, i64 %68
  store ptr %69, ptr %9, align 8
  br label %71

70:                                               ; preds = %53, %49
  store ptr null, ptr %9, align 8
  br label %71

71:                                               ; preds = %70, %61
  %72 = phi i32 [ 1, %61 ], [ 0, %70 ]
  %73 = icmp ne i32 %72, 0
  br i1 %73, label %75, label %74

74:                                               ; preds = %71
  store i32 4, ptr %10, align 4
  call void @llvm.lifetime.end.p0(i64 16, ptr %11) #12
  br label %112

75:                                               ; preds = %71
  call void @llvm.lifetime.start.p0(i64 8, ptr %12) #12
  %76 = load ptr, ptr %9, align 8
  %77 = load ptr, ptr %76, align 8
  store ptr %77, ptr %12, align 8
  call void @llvm.lifetime.start.p0(i64 8, ptr %13) #12
  store ptr null, ptr %13, align 8
  %78 = load i8, ptr %6, align 1, !range !4, !noundef !5
  %79 = trunc i8 %78 to i1
  br i1 %79, label %80, label %88

80:                                               ; preds = %75
  %81 = load ptr, ptr %12, align 8
  %82 = call ptr @first_dir_separator(ptr noundef %81)
  %83 = icmp eq ptr %82, null
  br i1 %83, label %84, label %88

84:                                               ; preds = %80
  %85 = load ptr, ptr %12, align 8
  %86 = call ptr (ptr, ...) @psprintf(ptr noundef @.str.87, ptr noundef %85)
  store ptr %86, ptr %13, align 8
  %87 = load ptr, ptr %13, align 8
  store ptr %87, ptr %12, align 8
  br label %88

88:                                               ; preds = %84, %80, %75
  %89 = load ptr, ptr %12, align 8
  %90 = load i8, ptr %6, align 1, !range !4, !noundef !5
  %91 = trunc i8 %90 to i1
  call void @load_file(ptr noundef %89, i1 noundef zeroext %91)
  br label %92

92:                                               ; preds = %88
  br i1 false, label %93, label %95

93:                                               ; preds = %92
  %94 = call zeroext i1 @errstart_cold(i32 noundef 14, ptr noundef null) #13
  br i1 %94, label %97, label %100

95:                                               ; preds = %92
  %96 = call zeroext i1 @errstart(i32 noundef 14, ptr noundef null)
  br i1 %96, label %97, label %100

97:                                               ; preds = %95, %93
  %98 = load ptr, ptr %12, align 8
  %99 = call i32 (ptr, ...) @errmsg_internal(ptr noundef @.str.88, ptr noundef %98)
  call void @errfinish(ptr noundef @.str.1, i32 noundef 1886, ptr noundef @__func__.load_libraries)
  br label %100

100:                                              ; preds = %97, %95, %93
  br label %101

101:                                              ; preds = %100
  br label %102

102:                                              ; preds = %101
  %103 = load ptr, ptr %13, align 8
  %104 = icmp ne ptr %103, null
  br i1 %104, label %105, label %107

105:                                              ; preds = %102
  %106 = load ptr, ptr %13, align 8
  call void @pfree(ptr noundef %106)
  br label %107

107:                                              ; preds = %105, %102
  call void @llvm.lifetime.end.p0(i64 8, ptr %13) #12
  call void @llvm.lifetime.end.p0(i64 8, ptr %12) #12
  br label %108

108:                                              ; preds = %107
  %109 = getelementptr inbounds nuw %struct.ForEachState, ptr %11, i32 0, i32 1
  %110 = load i32, ptr %109, align 8
  %111 = add i32 %110, 1
  store i32 %111, ptr %109, align 8
  br label %49, !llvm.loop !11

112:                                              ; preds = %74
  %113 = load ptr, ptr %8, align 8
  call void @list_free_deep(ptr noundef %113)
  %114 = load ptr, ptr %7, align 8
  call void @pfree(ptr noundef %114)
  store i32 0, ptr %10, align 4
  br label %115

115:                                              ; preds = %112, %43, %23
  call void @llvm.lifetime.end.p0(i64 8, ptr %9) #12
  call void @llvm.lifetime.end.p0(i64 8, ptr %8) #12
  call void @llvm.lifetime.end.p0(i64 8, ptr %7) #12
  %116 = load i32, ptr %10, align 4
  switch i32 %116, label %118 [
    i32 0, label %117
    i32 1, label %117
  ]

117:                                              ; preds = %115, %115
  ret void

118:                                              ; preds = %115
  unreachable
}